target datalayout = "e-m:e-p270:32:32-p271:32:32-p272:64:64-i64:64-i128:128-f80:128-n8:16:32:64-S128"
target triple = "x86_64-pc-linux-gnu"

%struct.Vec_Int_t_ = type { i32, i32, ptr }

; Function Attrs: inlinehint nounwind uwtable
define internal i32 @Abc_LitNotCond(i32 noundef %0, i32 noundef %1) #2 {
  %3 = alloca i32, align 4
  %4 = alloca i32, align 4
  store i32 %0, ptr %3, align 4, !tbaa !8
  store i32 %1, ptr %4, align 4, !tbaa !8
  %5 = load i32, ptr %3, align 4, !tbaa !8
  %6 = load i32, ptr %4, align 4, !tbaa !8
  %7 = icmp sgt i32 %6, 0
  %8 = zext i1 %7 to i32
  %9 = xor i32 %5, %8
  ret i32 %9
}

; Function Attrs: inlinehint nounwind uwtable
define internal void @Vec_IntGrow(ptr noundef %0, i32 noundef %1) #2 {
  %3 = alloca ptr, align 8
  %4 = alloca i32, align 4
  store ptr %0, ptr %3, align 8, !tbaa !31
  store i32 %1, ptr %4, align 4, !tbaa !8
  %5 = load ptr, ptr %3, align 8, !tbaa !31
  %6 = getelementptr inbounds nuw %struct.Vec_Int_t_, ptr %5, i32 0, i32 0
  %7 = load i32, ptr %6, align 8, !tbaa !34
  %8 = load i32, ptr %4, align 4, !tbaa !8
  %9 = icmp sge i32 %7, %8
  br i1 %9, label %10, label %11

10:                                               ; preds = %2
  br label %36

11:                                               ; preds = %2
  %12 = load ptr, ptr %3, align 8, !tbaa !31
  %13 = getelementptr inbounds nuw %struct.Vec_Int_t_, ptr %12, i32 0, i32 2
  %14 = load ptr, ptr %13, align 8, !tbaa !35
  %15 = icmp ne ptr %14, null
  br i1 %15, label %16, label %24

16:                                               ; preds = %11
  %17 = load ptr, ptr %3, align 8, !tbaa !31
  %18 = getelementptr inbounds nuw %struct.Vec_Int_t_, ptr %17, i32 0, i32 2
  %19 = load ptr, ptr %18, align 8, !tbaa !35
  %20 = load i32, ptr %4, align 4, !tbaa !8
  %21 = sext i32 %20 to i64
  %22 = mul i64 4, %21
  %23 = call ptr @realloc(ptr noundef %19, i64 noundef %22) #16
  br label %29

24:                                               ; preds = %11
  %25 = load i32, ptr %4, align 4, !tbaa !8
  %26 = sext i32 %25 to i64
  %27 = mul i64 4, %26
  %28 = call noalias ptr @malloc(i64 noundef %27) #14
  br label %29

29:                                               ; preds = %24, %16
  %30 = phi ptr [ %23, %16 ], [ %28, %24 ]
  %31 = load ptr, ptr %3, align 8, !tbaa !31
  %32 = getelementptr inbounds nuw %struct.Vec_Int_t_, ptr %31, i32 0, i32 2
  store ptr %30, ptr %32, align 8, !tbaa !35
  %33 = load i32, ptr %4, align 4, !tbaa !8
  %34 = load ptr, ptr %3, align 8, !tbaa !31
  %35 = getelementptr inbounds nuw %struct.Vec_Int_t_, ptr %34, i32 0, i32 0
  store i32 %33, ptr %35, align 8, !tbaa !34
  br label %36

36:                                               ; preds = %29, %10
  ret void
}

; Function Attrs: nounwind uwtable
define void @Wlc_BlastFullAdderCtrl(ptr noundef %0, i32 noundef %1, i32 noundef %2, i32 noundef %3, i32 noundef %4, ptr noundef %5, ptr noundef %6, i32 noundef %7) #0 {
  %9 = alloca ptr, align 8
  %10 = alloca i32, align 4
  %11 = alloca i32, align 4
  %12 = alloca i32, align 4
  %13 = alloca i32, align 4
  %14 = alloca ptr, align 8
  %15 = alloca ptr, align 8
  %16 = alloca i32, align 4
  %17 = alloca i32, align 4
  store ptr %0, ptr %9, align 8, !tbaa !38
  store i32 %1, ptr %10, align 4, !tbaa !8
  store i32 %2, ptr %11, align 4, !tbaa !8
  store i32 %3, ptr %12, align 4, !tbaa !8
  store i32 %4, ptr %13, align 4, !tbaa !8
  store ptr %5, ptr %14, align 8, !tbaa !3
  store ptr %6, ptr %15, align 8, !tbaa !3
  store i32 %7, ptr %16, align 4, !tbaa !8
  call void @llvm.lifetime.start.p0(i64 4, ptr %17) #12
  %18 = load ptr, ptr %9, align 8, !tbaa !38
  %19 = load i32, ptr %10, align 4, !tbaa !8
  %20 = load i32, ptr %11, align 4, !tbaa !8
  %21 = call i32 @Gia_ManHashAnd(ptr noundef %18, i32 noundef %19, i32 noundef %20)
  %22 = load i32, ptr %16, align 4, !tbaa !8
  %23 = call i32 @Abc_LitNotCond(i32 noundef %21, i32 noundef %22)
  store i32 %23, ptr %17, align 4, !tbaa !8
  %24 = load ptr, ptr %9, align 8, !tbaa !38
  %25 = load i32, ptr %17, align 4, !tbaa !8
  %26 = load i32, ptr %12, align 4, !tbaa !8
  %27 = load i32, ptr %13, align 4, !tbaa !8
  %28 = load ptr, ptr %14, align 8, !tbaa !3
  %29 = load ptr, ptr %15, align 8, !tbaa !3
  call void @Wlc_BlastFullAdder(ptr noundef %24, i32 noundef %25, i32 noundef %26, i32 noundef %27, ptr noundef %28, ptr noundef %29)
  call void @llvm.lifetime.end.p0(i64 4, ptr %17) #12
  ret void
}

; Function Attrs: inlinehint nounwind uwtable
define internal ptr @Vec_IntArray(ptr noundef %0) #2 {
  %2 = alloca ptr, align 8
  store ptr %0, ptr %2, align 8, !tbaa !31
  %3 = load ptr, ptr %2, align 8, !tbaa !31
  %4 = getelementptr inbounds nuw %struct.Vec_Int_t_, ptr %3, i32 0, i32 2
  %5 = load ptr, ptr %4, align 8, !tbaa !35
  ret ptr %5
}

; Function Attrs: inlinehint nounwind uwtable
define internal void @Vec_IntFill(ptr noundef %0, i32 noundef %1, i32 noundef %2) #2 {
  %4 = alloca ptr, align 8
  %5 = alloca i32, align 4
  %6 = alloca i32, align 4
  %7 = alloca i32, align 4
  store ptr %0, ptr %4, align 8, !tbaa !31
  store i32 %1, ptr %5, align 4, !tbaa !8
  store i32 %2, ptr %6, align 4, !tbaa !8
  call void @llvm.lifetime.start.p0(i64 4, ptr %7) #12
  %8 = load ptr, ptr %4, align 8, !tbaa !31
  %9 = load i32, ptr %5, align 4, !tbaa !8
  call void @Vec_IntGrow(ptr noundef %8, i32 noundef %9)
  store i32 0, ptr %7, align 4, !tbaa !8
  br label %10

10:                                               ; preds = %22, %3
  %11 = load i32, ptr %7, align 4, !tbaa !8
  %12 = load i32, ptr %5, align 4, !tbaa !8
  %13 = icmp slt i32 %11, %12
  br i1 %13, label %14, label %25

14:                                               ; preds = %10
  %15 = load i32, ptr %6, align 4, !tbaa !8
  %16 = load ptr, ptr %4, align 8, !tbaa !31
  %17 = getelementptr inbounds nuw %struct.Vec_Int_t_, ptr %16, i32 0, i32 2
  %18 = load ptr, ptr %17, align 8, !tbaa !35
  %19 = load i32, ptr %7, align 4, !tbaa !8
  %20 = sext i32 %19 to i64
  %21 = getelementptr inbounds i32, ptr %18, i64 %20
  store i32 %15, ptr %21, align 4, !tbaa !8
  br label %22

22:                                               ; preds = %14
  %23 = load i32, ptr %7, align 4, !tbaa !8
  %24 = add nsw i32 %23, 1
  store i32 %24, ptr %7, align 4, !tbaa !8
  br label %10, !llvm.loop !96

25:                                               ; preds = %10
  %26 = load i32, ptr %5, align 4, !tbaa !8
  %27 = load ptr, ptr %4, align 8, !tbaa !31
  %28 = getelementptr inbounds nuw %struct.Vec_Int_t_, ptr %27, i32 0, i32 1
  store i32 %26, ptr %28, align 4, !tbaa !33
  call void @llvm.lifetime.end.p0(i64 4, ptr %7) #12
  ret void
}

; Function Attrs: nounwind uwtable
define void @Wlc_BlastMultiplier(ptr noundef %0, ptr noundef %1, ptr noundef %2, i32 noundef %3, i32 noundef %4, ptr noundef %5, ptr noundef %6, i32 noundef %7) #0 {
  %9 = alloca ptr, align 8
  %10 = alloca ptr, align 8
  %11 = alloca ptr, align 8
  %12 = alloca i32, align 4
  %13 = alloca i32, align 4
  %14 = alloca ptr, align 8
  %15 = alloca ptr, align 8
  %16 = alloca i32, align 4
  %17 = alloca ptr, align 8
  %18 = alloca ptr, align 8
  %19 = alloca ptr, align 8
  %20 = alloca i32, align 4
  %21 = alloca i32, align 4
  %22 = alloca i32, align 4
  store ptr %0, ptr %9, align 8, !tbaa !38
  store ptr %1, ptr %10, align 8, !tbaa !3
  store ptr %2, ptr %11, align 8, !tbaa !3
  store i32 %3, ptr %12, align 4, !tbaa !8
  store i32 %4, ptr %13, align 4, !tbaa !8
  store ptr %5, ptr %14, align 8, !tbaa !31
  store ptr %6, ptr %15, align 8, !tbaa !31
  store i32 %7, ptr %16, align 4, !tbaa !8
  call void @llvm.lifetime.start.p0(i64 8, ptr %17) #12
  call void @llvm.lifetime.start.p0(i64 8, ptr %18) #12
  call void @llvm.lifetime.start.p0(i64 8, ptr %19) #12
  call void @llvm.lifetime.start.p0(i64 4, ptr %20) #12
  call void @llvm.lifetime.start.p0(i64 4, ptr %21) #12
  call void @llvm.lifetime.start.p0(i64 4, ptr %22) #12
  %23 = load i32, ptr %16, align 4, !tbaa !8
  store i32 %23, ptr %22, align 4, !tbaa !8
  %24 = load ptr, ptr %15, align 8, !tbaa !31
  %25 = load i32, ptr %12, align 4, !tbaa !8
  %26 = load i32, ptr %13, align 4, !tbaa !8
  %27 = add nsw i32 %25, %26
  call void @Vec_IntFill(ptr noundef %24, i32 noundef %27, i32 noundef 0)
  %28 = load ptr, ptr %15, align 8, !tbaa !31
  %29 = call ptr @Vec_IntArray(ptr noundef %28)
  store ptr %29, ptr %17, align 8, !tbaa !3
  %30 = load ptr, ptr %14, align 8, !tbaa !31
  %31 = load i32, ptr %12, align 4, !tbaa !8
  %32 = mul nsw i32 2, %31
  call void @Vec_IntFill(ptr noundef %30, i32 noundef %32, i32 noundef 0)
  %33 = load ptr, ptr %14, align 8, !tbaa !31
  %34 = call ptr @Vec_IntArray(ptr noundef %33)
  store ptr %34, ptr %18, align 8, !tbaa !3
  %35 = load ptr, ptr %18, align 8, !tbaa !3
  %36 = load i32, ptr %12, align 4, !tbaa !8
  %37 = sext i32 %36 to i64
  %38 = getelementptr inbounds i32, ptr %35, i64 %37
  store ptr %38, ptr %19, align 8, !tbaa !3
  store i32 0, ptr %21, align 4, !tbaa !8
  br label %39

39:                                               ; preds = %111, %8
  %40 = load i32, ptr %21, align 4, !tbaa !8
  %41 = load i32, ptr %13, align 4, !tbaa !8
  %42 = icmp slt i32 %40, %41
  br i1 %42, label %43, label %114

43:                                               ; preds = %39
  store i32 0, ptr %20, align 4, !tbaa !8
  br label %44

44:                                               ; preds = %107, %43
  %45 = load i32, ptr %20, align 4, !tbaa !8
  %46 = load i32, ptr %12, align 4, !tbaa !8
  %47 = icmp slt i32 %45, %46
  br i1 %47, label %48, label %110

48:                                               ; preds = %44
  %49 = load ptr, ptr %9, align 8, !tbaa !38
  %50 = load ptr, ptr %10, align 8, !tbaa !3
  %51 = load i32, ptr %20, align 4, !tbaa !8
  %52 = sext i32 %51 to i64
  %53 = getelementptr inbounds i32, ptr %50, i64 %52
  %54 = load i32, ptr %53, align 4, !tbaa !8
  %55 = load ptr, ptr %11, align 8, !tbaa !3
  %56 = load i32, ptr %21, align 4, !tbaa !8
  %57 = sext i32 %56 to i64
  %58 = getelementptr inbounds i32, ptr %55, i64 %57
  %59 = load i32, ptr %58, align 4, !tbaa !8
  %60 = load ptr, ptr %19, align 8, !tbaa !3
  %61 = load i32, ptr %20, align 4, !tbaa !8
  %62 = sext i32 %61 to i64
  %63 = getelementptr inbounds i32, ptr %60, i64 %62
  %64 = load i32, ptr %63, align 4, !tbaa !8
  %65 = load ptr, ptr %18, align 8, !tbaa !3
  %66 = load i32, ptr %20, align 4, !tbaa !8
  %67 = sext i32 %66 to i64
  %68 = getelementptr inbounds i32, ptr %65, i64 %67
  %69 = load i32, ptr %68, align 4, !tbaa !8
  %70 = load ptr, ptr %18, align 8, !tbaa !3
  %71 = load i32, ptr %20, align 4, !tbaa !8
  %72 = sext i32 %71 to i64
  %73 = getelementptr inbounds i32, ptr %70, i64 %72
  %74 = load i32, ptr %20, align 4, !tbaa !8
  %75 = icmp ne i32 %74, 0
  br i1 %75, label %76, label %82

76:                                               ; preds = %48
  %77 = load ptr, ptr %19, align 8, !tbaa !3
  %78 = load i32, ptr %20, align 4, !tbaa !8
  %79 = sub nsw i32 %78, 1
  %80 = sext i32 %79 to i64
  %81 = getelementptr inbounds i32, ptr %77, i64 %80
  br label %87

82:                                               ; preds = %48
  %83 = load ptr, ptr %17, align 8, !tbaa !3
  %84 = load i32, ptr %21, align 4, !tbaa !8
  %85 = sext i32 %84 to i64
  %86 = getelementptr inbounds i32, ptr %83, i64 %85
  br label %87

87:                                               ; preds = %82, %76
  %88 = phi ptr [ %81, %76 ], [ %86, %82 ]
  %89 = load i32, ptr %16, align 4, !tbaa !8
  %90 = icmp ne i32 %89, 0
  br i1 %90, label %91, label %104

91:                                               ; preds = %87
  %92 = load i32, ptr %20, align 4, !tbaa !8
  %93 = add nsw i32 %92, 1
  %94 = load i32, ptr %12, align 4, !tbaa !8
  %95 = icmp eq i32 %93, %94
  %96 = zext i1 %95 to i32
  %97 = load i32, ptr %21, align 4, !tbaa !8
  %98 = add nsw i32 %97, 1
  %99 = load i32, ptr %13, align 4, !tbaa !8
  %100 = icmp eq i32 %98, %99
  %101 = zext i1 %100 to i32
  %102 = xor i32 %96, %101
  %103 = icmp ne i32 %102, 0
  br label %104

104:                                              ; preds = %91, %87
  %105 = phi i1 [ false, %87 ], [ %103, %91 ]
  %106 = zext i1 %105 to i32
  call void @Wlc_BlastFullAdderCtrl(ptr noundef %49, i32 noundef %54, i32 noundef %59, i32 noundef %64, i32 noundef %69, ptr noundef %73, ptr noundef %88, i32 noundef %106)
  br label %107

107:                                              ; preds = %104
  %108 = load i32, ptr %20, align 4, !tbaa !8
  %109 = add nsw i32 %108, 1
  store i32 %109, ptr %20, align 4, !tbaa !8
  br label %44, !llvm.loop !97

110:                                              ; preds = %44
  br label %111

111:                                              ; preds = %110
  %112 = load i32, ptr %21, align 4, !tbaa !8
  %113 = add nsw i32 %112, 1
  store i32 %113, ptr %21, align 4, !tbaa !8
  br label %39, !llvm.loop !98

114:                                              ; preds = %39
  %115 = load i32, ptr %16, align 4, !tbaa !8
  %116 = load ptr, ptr %19, align 8, !tbaa !3
  %117 = load i32, ptr %12, align 4, !tbaa !8
  %118 = sub nsw i32 %117, 1
  %119 = sext i32 %118 to i64
  %120 = getelementptr inbounds i32, ptr %116, i64 %119
  store i32 %115, ptr %120, align 4, !tbaa !8
  store i32 0, ptr %20, align 4, !tbaa !8
  br label %121

121:                                              ; preds = %144, %114
  %122 = load i32, ptr %20, align 4, !tbaa !8
  %123 = load i32, ptr %12, align 4, !tbaa !8
  %124 = icmp slt i32 %122, %123
  br i1 %124, label %125, label %147

125:                                              ; preds = %121
  %126 = load ptr, ptr %9, align 8, !tbaa !38
  %127 = load ptr, ptr %18, align 8, !tbaa !3
  %128 = load i32, ptr %20, align 4, !tbaa !8
  %129 = sext i32 %128 to i64
  %130 = getelementptr inbounds i32, ptr %127, i64 %129
  %131 = load i32, ptr %130, align 4, !tbaa !8
  %132 = load ptr, ptr %19, align 8, !tbaa !3
  %133 = load i32, ptr %20, align 4, !tbaa !8
  %134 = sext i32 %133 to i64
  %135 = getelementptr inbounds i32, ptr %132, i64 %134
  %136 = load i32, ptr %135, align 4, !tbaa !8
  %137 = load i32, ptr %22, align 4, !tbaa !8
  %138 = load ptr, ptr %17, align 8, !tbaa !3
  %139 = load i32, ptr %13, align 4, !tbaa !8
  %140 = load i32, ptr %20, align 4, !tbaa !8
  %141 = add nsw i32 %139, %140
  %142 = sext i32 %141 to i64
  %143 = getelementptr inbounds i32, ptr %138, i64 %142
  call void @Wlc_BlastFullAdderCtrl(ptr noundef %126, i32 noundef 1, i32 noundef %131, i32 noundef %136, i32 noundef %137, ptr noundef %22, ptr noundef %143, i32 noundef 0)
  br label %144

144:                                              ; preds = %125
  %145 = load i32, ptr %20, align 4, !tbaa !8
  %146 = add nsw i32 %145, 1
  store i32 %146, ptr %20, align 4, !tbaa !8
  br label %121, !llvm.loop !99

147:                                              ; preds = %121
  call void @llvm.lifetime.end.p0(i64 4, ptr %22) #12
  call void @llvm.lifetime.end.p0(i64 4, ptr %21) #12
  call void @llvm.lifetime.end.p0(i64 4, ptr %20) #12
  call void @llvm.lifetime.end.p0(i64 8, ptr %19) #12
  call void @llvm.lifetime.end.p0(i64 8, ptr %18) #12
  call void @llvm.lifetime.end.p0(i64 8, ptr %17) #12
  ret void
}