; Function Attrs: nounwind uwtable
define void @Wlc_BlastMultiplier(ptr noundef %0, ptr noundef readonly captures(none) %1, ptr noundef readonly captures(none) %2, i32 noundef %3, i32 noundef %4, ptr noundef captures(none) initializes((4, 8)) %5, ptr noundef captures(none) initializes((4, 8)) %6, i32 noundef %7) local_unnamed_addr #2 {
  %9 = alloca i32, align 4
  call void @llvm.lifetime.start.p0(i64 4, ptr nonnull %9) #23
  store i32 %7, ptr %9, align 4, !tbaa !3
  %10 = add nsw i32 %4, %3
  %11 = load i32, ptr %6, align 8, !tbaa !21
  %.not.i.i = icmp slt i32 %11, %10
  br i1 %.not.i.i, label %12, label %Vec_IntGrow.exit.i

12:                                               ; preds = %8
  %13 = getelementptr inbounds nuw i8, ptr %6, i64 8
  %14 = load ptr, ptr %13, align 8, !tbaa !22
  %.not9.i.i = icmp eq ptr %14, null
  %15 = sext i32 %10 to i64
  %16 = shl nsw i64 %15, 2
  br i1 %.not9.i.i, label %19, label %17

17:                                               ; preds = %12
  %18 = tail call ptr @realloc(ptr noundef nonnull %14, i64 noundef %16) #21
  br label %21

19:                                               ; preds = %12
  %20 = tail call noalias ptr @malloc(i64 noundef %16) #22
  br label %21

21:                                               ; preds = %19, %17
  %22 = phi ptr [ %18, %17 ], [ %20, %19 ]
  store ptr %22, ptr %13, align 8, !tbaa !22
  store i32 %10, ptr %6, align 8, !tbaa !21
  br label %Vec_IntGrow.exit.i

Vec_IntGrow.exit.i:                               ; preds = %21, %8
  %23 = icmp sgt i32 %10, 0
  %24 = getelementptr i8, ptr %6, i64 8
  %25 = load ptr, ptr %24, align 8, !tbaa !22
  br i1 %23, label %.lr.ph.i, label %Vec_IntFill.exit

.lr.ph.i:                                         ; preds = %Vec_IntGrow.exit.i
  %wide.trip.count.i = zext nneg i32 %10 to i64
  %26 = shl nuw nsw i64 %wide.trip.count.i, 2
  tail call void @llvm.memset.p0.i64(ptr align 4 %25, i8 0, i64 %26, i1 false), !tbaa !3
  br label %Vec_IntFill.exit

Vec_IntFill.exit:                                 ; preds = %Vec_IntGrow.exit.i, %.lr.ph.i
  %27 = getelementptr inbounds nuw i8, ptr %6, i64 4
  store i32 %10, ptr %27, align 4, !tbaa !23
  %28 = shl nsw i32 %3, 1
  %29 = load i32, ptr %5, align 8, !tbaa !21
  %.not.i.i56 = icmp slt i32 %29, %28
  br i1 %.not.i.i56, label %30, label %Vec_IntGrow.exit.i57

30:                                               ; preds = %Vec_IntFill.exit
  %31 = getelementptr inbounds nuw i8, ptr %5, i64 8
  %32 = load ptr, ptr %31, align 8, !tbaa !22
  %.not9.i.i63 = icmp eq ptr %32, null
  %33 = sext i32 %28 to i64
  %34 = shl nsw i64 %33, 2
  br i1 %.not9.i.i63, label %37, label %35

35:                                               ; preds = %30
  %36 = tail call ptr @realloc(ptr noundef nonnull %32, i64 noundef %34) #21
  br label %39

37:                                               ; preds = %30
  %38 = tail call noalias ptr @malloc(i64 noundef %34) #22
  br label %39

39:                                               ; preds = %37, %35
  %40 = phi ptr [ %36, %35 ], [ %38, %37 ]
  store ptr %40, ptr %31, align 8, !tbaa !22
  store i32 %28, ptr %5, align 8, !tbaa !21
  br label %Vec_IntGrow.exit.i57

Vec_IntGrow.exit.i57:                             ; preds = %39, %Vec_IntFill.exit
  %41 = icmp sgt i32 %3, 0
  %42 = getelementptr i8, ptr %5, i64 8
  %43 = load ptr, ptr %42, align 8, !tbaa !22
  br i1 %41, label %Vec_IntFill.exit64, label %Vec_IntFill.exit64.thread

Vec_IntFill.exit64:                               ; preds = %Vec_IntGrow.exit.i57
  %wide.trip.count.i59 = zext nneg i32 %28 to i64
  %44 = shl nuw nsw i64 %wide.trip.count.i59, 2
  tail call void @llvm.memset.p0.i64(ptr align 4 %43, i8 0, i64 %44, i1 false), !tbaa !3
  %45 = getelementptr inbounds nuw i8, ptr %5, i64 4
  store i32 %28, ptr %45, align 4, !tbaa !23
  %46 = zext nneg i32 %3 to i64
  %47 = getelementptr inbounds nuw i32, ptr %43, i64 %46
  %48 = icmp sgt i32 %4, 0
  br i1 %48, label %.preheader.us.preheader, label %._crit_edge67

Vec_IntFill.exit64.thread:                        ; preds = %Vec_IntGrow.exit.i57
  %49 = getelementptr inbounds nuw i8, ptr %5, i64 4
  store i32 %28, ptr %49, align 4, !tbaa !23
  %50 = sext i32 %3 to i64
  %51 = getelementptr inbounds i32, ptr %43, i64 %50
  %52 = getelementptr i32, ptr %51, i64 %50
  %53 = getelementptr i8, ptr %52, i64 -4
  store i32 %7, ptr %53, align 4, !tbaa !3
  br label %._crit_edge

.preheader.us.preheader:                          ; preds = %Vec_IntFill.exit64
  %.not54 = icmp ne i32 %7, 0
  %54 = zext nneg i32 %3 to i64
  %55 = zext nneg i32 %4 to i64
  br label %.preheader.us

.preheader.us:                                    ; preds = %.preheader.us.preheader, %._crit_edge.us
  %indvars.iv71 = phi i64 [ 0, %.preheader.us.preheader ], [ %indvars.iv.next72, %._crit_edge.us ]
  %56 = getelementptr inbounds nuw i32, ptr %2, i64 %indvars.iv71
  %57 = getelementptr inbounds nuw i32, ptr %25, i64 %indvars.iv71
  %indvars.iv.next72 = add nuw nsw i64 %indvars.iv71, 1
  %58 = icmp eq i64 %indvars.iv.next72, %55
  br label %59

59:                                               ; preds = %.preheader.us, %Wlc_BlastFullAdder.exit.us
  %indvars.iv = phi i64 [ 0, %.preheader.us ], [ %indvars.iv.next, %Wlc_BlastFullAdder.exit.us ]
  %60 = getelementptr inbounds nuw i32, ptr %1, i64 %indvars.iv
  %61 = load i32, ptr %60, align 4, !tbaa !3
  %62 = load i32, ptr %56, align 4, !tbaa !3
  %63 = getelementptr inbounds nuw i32, ptr %47, i64 %indvars.iv
  %64 = load i32, ptr %63, align 4, !tbaa !3
  %65 = getelementptr inbounds nuw i32, ptr %43, i64 %indvars.iv
  %66 = load i32, ptr %65, align 4, !tbaa !3
  %.not.us = icmp eq i64 %indvars.iv, 0
  %67 = getelementptr i8, ptr %63, i64 -4
  %68 = select i1 %.not.us, ptr %57, ptr %67
  %indvars.iv.next = add nuw nsw i64 %indvars.iv, 1
  %69 = icmp eq i64 %indvars.iv.next, %54
  %70 = xor i1 %58, %69
  %narrow = select i1 %.not54, i1 %70, i1 false
  %71 = zext i1 %narrow to i32
  %72 = tail call i32 @Gia_ManHashAnd(ptr noundef %0, i32 noundef %61, i32 noundef %62) #23
  %73 = xor i32 %72, %71
  %74 = icmp eq i32 %73, 1
  %75 = icmp eq i32 %64, 1
  %or.cond.i.us = or i1 %75, %74
  %76 = icmp eq i32 %66, 1
  %spec.select.i.us = or i1 %76, %or.cond.i.us
  %77 = zext i1 %spec.select.i.us to i32
  %.054.i.us = xor i32 %66, %77
  %.053.i.us = xor i32 %64, %77
  %.0.i.us = xor i32 %73, %77
  %78 = tail call i32 @Gia_ManHashAnd(ptr noundef %0, i32 noundef %.0.i.us, i32 noundef %.053.i.us) #23
  %79 = xor i32 %.0.i.us, 1
  %80 = xor i32 %.053.i.us, 1
  %81 = tail call i32 @Gia_ManHashAnd(ptr noundef %0, i32 noundef %79, i32 noundef %80) #23
  %82 = xor i32 %78, 1
  %83 = xor i32 %81, 1
  %84 = tail call i32 @Gia_ManHashAnd(ptr noundef %0, i32 noundef %82, i32 noundef %83) #23
  %85 = tail call i32 @Gia_ManHashAnd(ptr noundef %0, i32 noundef %.054.i.us, i32 noundef %84) #23
  %86 = xor i32 %.054.i.us, 1
  %87 = xor i32 %84, 1
  %88 = tail call i32 @Gia_ManHashAnd(ptr noundef %0, i32 noundef %86, i32 noundef %87) #23
  %89 = xor i32 %85, 1
  %90 = xor i32 %88, 1
  %91 = tail call i32 @Gia_ManHashAnd(ptr noundef %0, i32 noundef %89, i32 noundef %90) #23
  store i32 %91, ptr %68, align 4, !tbaa !3
  %92 = tail call i32 @Gia_ManHashOr(ptr noundef %0, i32 noundef %78, i32 noundef %85) #23
  store i32 %92, ptr %65, align 4, !tbaa !3
  br i1 %spec.select.i.us, label %93, label %Wlc_BlastFullAdder.exit.us

93:                                               ; preds = %59
  %94 = load i32, ptr %68, align 4, !tbaa !3
  %95 = xor i32 %94, 1
  store i32 %95, ptr %68, align 4, !tbaa !3
  %96 = load i32, ptr %65, align 4, !tbaa !3
  %97 = xor i32 %96, 1
  store i32 %97, ptr %65, align 4, !tbaa !3
  br label %Wlc_BlastFullAdder.exit.us

Wlc_BlastFullAdder.exit.us:                       ; preds = %93, %59
  %exitcond.not = icmp eq i64 %indvars.iv.next, %54
  br i1 %exitcond.not, label %._crit_edge.us, label %59, !llvm.loop !82

._crit_edge.us:                                   ; preds = %Wlc_BlastFullAdder.exit.us
  %exitcond75.not = icmp eq i64 %indvars.iv.next72, %55
  br i1 %exitcond75.not, label %._crit_edge67, label %.preheader.us, !llvm.loop !83

._crit_edge67:                                    ; preds = %._crit_edge.us, %Vec_IntFill.exit64
  %98 = getelementptr i32, ptr %47, i64 %46
  %99 = getelementptr i8, ptr %98, i64 -4
  store i32 %7, ptr %99, align 4, !tbaa !3
  %100 = sext i32 %4 to i64
  %wide.trip.count79 = zext nneg i32 %3 to i64
  %invariant.gep = getelementptr i32, ptr %25, i64 %100
  br label %.lr.ph

.lr.ph:                                           ; preds = %._crit_edge67, %.lr.ph
  %indvars.iv76 = phi i64 [ 0, %._crit_edge67 ], [ %indvars.iv.next77, %.lr.ph ]
  %101 = getelementptr inbounds nuw i32, ptr %43, i64 %indvars.iv76
  %102 = load i32, ptr %101, align 4, !tbaa !3
  %103 = getelementptr inbounds nuw i32, ptr %47, i64 %indvars.iv76
  %104 = load i32, ptr %103, align 4, !tbaa !3
  %105 = load i32, ptr %9, align 4, !tbaa !3
  %gep = getelementptr i32, ptr %invariant.gep, i64 %indvars.iv76
  %106 = tail call i32 @Gia_ManHashAnd(ptr noundef %0, i32 noundef 1, i32 noundef %102) #23
  call void @Wlc_BlastFullAdder(ptr noundef %0, i32 noundef %106, i32 noundef %104, i32 noundef %105, ptr noundef nonnull %9, ptr noundef %gep)
  %indvars.iv.next77 = add nuw nsw i64 %indvars.iv76, 1
  %exitcond80.not = icmp eq i64 %indvars.iv.next77, %wide.trip.count79
  br i1 %exitcond80.not, label %._crit_edge, label %.lr.ph, !llvm.loop !84

._crit_edge:                                      ; preds = %.lr.ph, %Vec_IntFill.exit64.thread
  call void @llvm.lifetime.end.p0(i64 4, ptr nonnull %9) #23
  ret void
}